target datalayout = "e-m:e-p270:32:32-p271:32:32-p272:64:64-i64:64-i128:128-f80:128-n8:16:32:64-S128"
target triple = "x86_64-pc-linux-gnu"

%struct._zend_refcounted_h = type { i32, %union.anon }
%union.anon = type { i32 }
%struct._zend_string = type { %struct._zend_refcounted_h, i64, i64, [1 x i8] }

; Function Attrs: nounwind uwtable
define ptr @zend_string_concat2(ptr noundef %0, i64 noundef %1, ptr noundef %2, i64 noundef %3) #0 {
  %5 = alloca ptr, align 8
  %6 = alloca i32, align 4
  %7 = alloca i64, align 8
  %8 = alloca i8, align 1
  %9 = alloca ptr, align 8
  %10 = alloca ptr, align 8
  %11 = alloca i64, align 8
  %12 = alloca ptr, align 8
  %13 = alloca i64, align 8
  %14 = alloca i64, align 8
  %15 = alloca ptr, align 8
  store ptr %0, ptr %10, align 8
  store i64 %1, ptr %11, align 8
  store ptr %2, ptr %12, align 8
  store i64 %3, ptr %13, align 8
  %16 = load i64, ptr %11, align 8
  %17 = load i64, ptr %13, align 8
  %18 = add i64 %16, %17
  store i64 %18, ptr %14, align 8
  %19 = load i64, ptr %14, align 8
  store i64 %19, ptr %7, align 8
  store i8 0, ptr %8, align 1
  %20 = load i8, ptr %8, align 1
  %21 = trunc i8 %20 to i1
  br i1 %21, label %22, label %30

22:                                               ; preds = %4
  %23 = load i64, ptr %7, align 8
  %24 = add i64 24, %23
  %25 = add i64 %24, 1
  %26 = add i64 %25, 8
  %27 = sub i64 %26, 1
  %28 = and i64 %27, -8
  %29 = call noalias ptr @__zend_malloc(i64 noundef %28) #9
  br label %434

30:                                               ; preds = %4
  %31 = load i64, ptr %7, align 8
  %32 = add i64 24, %31
  %33 = add i64 %32, 1
  %34 = add i64 %33, 8
  %35 = sub i64 %34, 1
  %36 = and i64 %35, -8
  %37 = call i1 @llvm.is.constant.i64(i64 %36)
  br i1 %37, label %38, label %424

38:                                               ; preds = %30
  %39 = load i64, ptr %7, align 8
  %40 = add i64 24, %39
  %41 = add i64 %40, 1
  %42 = add i64 %41, 8
  %43 = sub i64 %42, 1
  %44 = and i64 %43, -8
  %45 = icmp ule i64 %44, 8
  br i1 %45, label %46, label %48

46:                                               ; preds = %38
  %47 = call noalias ptr @_emalloc_8() #8
  br label %422

48:                                               ; preds = %38
  %49 = load i64, ptr %7, align 8
  %50 = add i64 24, %49
  %51 = add i64 %50, 1
  %52 = add i64 %51, 8
  %53 = sub i64 %52, 1
  %54 = and i64 %53, -8
  %55 = icmp ule i64 %54, 16
  br i1 %55, label %56, label %58

56:                                               ; preds = %48
  %57 = call noalias ptr @_emalloc_16() #8
  br label %420

58:                                               ; preds = %48
  %59 = load i64, ptr %7, align 8
  %60 = add i64 24, %59
  %61 = add i64 %60, 1
  %62 = add i64 %61, 8
  %63 = sub i64 %62, 1
  %64 = and i64 %63, -8
  %65 = icmp ule i64 %64, 24
  br i1 %65, label %66, label %68

66:                                               ; preds = %58
  %67 = call noalias ptr @_emalloc_24() #8
  br label %418

68:                                               ; preds = %58
  %69 = load i64, ptr %7, align 8
  %70 = add i64 24, %69
  %71 = add i64 %70, 1
  %72 = add i64 %71, 8
  %73 = sub i64 %72, 1
  %74 = and i64 %73, -8
  %75 = icmp ule i64 %74, 32
  br i1 %75, label %76, label %78

76:                                               ; preds = %68
  %77 = call noalias ptr @_emalloc_32() #8
  br label %416

78:                                               ; preds = %68
  %79 = load i64, ptr %7, align 8
  %80 = add i64 24, %79
  %81 = add i64 %80, 1
  %82 = add i64 %81, 8
  %83 = sub i64 %82, 1
  %84 = and i64 %83, -8
  %85 = icmp ule i64 %84, 40
  br i1 %85, label %86, label %88

86:                                               ; preds = %78
  %87 = call noalias ptr @_emalloc_40() #8
  br label %414

88:                                               ; preds = %78
  %89 = load i64, ptr %7, align 8
  %90 = add i64 24, %89
  %91 = add i64 %90, 1
  %92 = add i64 %91, 8
  %93 = sub i64 %92, 1
  %94 = and i64 %93, -8
  %95 = icmp ule i64 %94, 48
  br i1 %95, label %96, label %98

96:                                               ; preds = %88
  %97 = call noalias ptr @_emalloc_48() #8
  br label %412

98:                                               ; preds = %88
  %99 = load i64, ptr %7, align 8
  %100 = add i64 24, %99
  %101 = add i64 %100, 1
  %102 = add i64 %101, 8
  %103 = sub i64 %102, 1
  %104 = and i64 %103, -8
  %105 = icmp ule i64 %104, 56
  br i1 %105, label %106, label %108

106:                                              ; preds = %98
  %107 = call noalias ptr @_emalloc_56() #8
  br label %410

108:                                              ; preds = %98
  %109 = load i64, ptr %7, align 8
  %110 = add i64 24, %109
  %111 = add i64 %110, 1
  %112 = add i64 %111, 8
  %113 = sub i64 %112, 1
  %114 = and i64 %113, -8
  %115 = icmp ule i64 %114, 64
  br i1 %115, label %116, label %118

116:                                              ; preds = %108
  %117 = call noalias ptr @_emalloc_64() #8
  br label %408

118:                                              ; preds = %108
  %119 = load i64, ptr %7, align 8
  %120 = add i64 24, %119
  %121 = add i64 %120, 1
  %122 = add i64 %121, 8
  %123 = sub i64 %122, 1
  %124 = and i64 %123, -8
  %125 = icmp ule i64 %124, 80
  br i1 %125, label %126, label %128

126:                                              ; preds = %118
  %127 = call noalias ptr @_emalloc_80() #8
  br label %406

128:                                              ; preds = %118
  %129 = load i64, ptr %7, align 8
  %130 = add i64 24, %129
  %131 = add i64 %130, 1
  %132 = add i64 %131, 8
  %133 = sub i64 %132, 1
  %134 = and i64 %133, -8
  %135 = icmp ule i64 %134, 96
  br i1 %135, label %136, label %138

136:                                              ; preds = %128
  %137 = call noalias ptr @_emalloc_96() #8
  br label %404

138:                                              ; preds = %128
  %139 = load i64, ptr %7, align 8
  %140 = add i64 24, %139
  %141 = add i64 %140, 1
  %142 = add i64 %141, 8
  %143 = sub i64 %142, 1
  %144 = and i64 %143, -8
  %145 = icmp ule i64 %144, 112
  br i1 %145, label %146, label %148

146:                                              ; preds = %138
  %147 = call noalias ptr @_emalloc_112() #8
  br label %402

148:                                              ; preds = %138
  %149 = load i64, ptr %7, align 8
  %150 = add i64 24, %149
  %151 = add i64 %150, 1
  %152 = add i64 %151, 8
  %153 = sub i64 %152, 1
  %154 = and i64 %153, -8
  %155 = icmp ule i64 %154, 128
  br i1 %155, label %156, label %158

156:                                              ; preds = %148
  %157 = call noalias ptr @_emalloc_128() #8
  br label %400

158:                                              ; preds = %148
  %159 = load i64, ptr %7, align 8
  %160 = add i64 24, %159
  %161 = add i64 %160, 1
  %162 = add i64 %161, 8
  %163 = sub i64 %162, 1
  %164 = and i64 %163, -8
  %165 = icmp ule i64 %164, 160
  br i1 %165, label %166, label %168

166:                                              ; preds = %158
  %167 = call noalias ptr @_emalloc_160() #8
  br label %398

168:                                              ; preds = %158
  %169 = load i64, ptr %7, align 8
  %170 = add i64 24, %169
  %171 = add i64 %170, 1
  %172 = add i64 %171, 8
  %173 = sub i64 %172, 1
  %174 = and i64 %173, -8
  %175 = icmp ule i64 %174, 192
  br i1 %175, label %176, label %178

176:                                              ; preds = %168
  %177 = call noalias ptr @_emalloc_192() #8
  br label %396

178:                                              ; preds = %168
  %179 = load i64, ptr %7, align 8
  %180 = add i64 24, %179
  %181 = add i64 %180, 1
  %182 = add i64 %181, 8
  %183 = sub i64 %182, 1
  %184 = and i64 %183, -8
  %185 = icmp ule i64 %184, 224
  br i1 %185, label %186, label %188

186:                                              ; preds = %178
  %187 = call noalias ptr @_emalloc_224() #8
  br label %394

188:                                              ; preds = %178
  %189 = load i64, ptr %7, align 8
  %190 = add i64 24, %189
  %191 = add i64 %190, 1
  %192 = add i64 %191, 8
  %193 = sub i64 %192, 1
  %194 = and i64 %193, -8
  %195 = icmp ule i64 %194, 256
  br i1 %195, label %196, label %198

196:                                              ; preds = %188
  %197 = call noalias ptr @_emalloc_256() #8
  br label %392

198:                                              ; preds = %188
  %199 = load i64, ptr %7, align 8
  %200 = add i64 24, %199
  %201 = add i64 %200, 1
  %202 = add i64 %201, 8
  %203 = sub i64 %202, 1
  %204 = and i64 %203, -8
  %205 = icmp ule i64 %204, 320
  br i1 %205, label %206, label %208

206:                                              ; preds = %198
  %207 = call noalias ptr @_emalloc_320() #8
  br label %390

208:                                              ; preds = %198
  %209 = load i64, ptr %7, align 8
  %210 = add i64 24, %209
  %211 = add i64 %210, 1
  %212 = add i64 %211, 8
  %213 = sub i64 %212, 1
  %214 = and i64 %213, -8
  %215 = icmp ule i64 %214, 384
  br i1 %215, label %216, label %218

216:                                              ; preds = %208
  %217 = call noalias ptr @_emalloc_384() #8
  br label %388

218:                                              ; preds = %208
  %219 = load i64, ptr %7, align 8
  %220 = add i64 24, %219
  %221 = add i64 %220, 1
  %222 = add i64 %221, 8
  %223 = sub i64 %222, 1
  %224 = and i64 %223, -8
  %225 = icmp ule i64 %224, 448
  br i1 %225, label %226, label %228

226:                                              ; preds = %218
  %227 = call noalias ptr @_emalloc_448() #8
  br label %386

228:                                              ; preds = %218
  %229 = load i64, ptr %7, align 8
  %230 = add i64 24, %229
  %231 = add i64 %230, 1
  %232 = add i64 %231, 8
  %233 = sub i64 %232, 1
  %234 = and i64 %233, -8
  %235 = icmp ule i64 %234, 512
  br i1 %235, label %236, label %238

236:                                              ; preds = %228
  %237 = call noalias ptr @_emalloc_512() #8
  br label %384

238:                                              ; preds = %228
  %239 = load i64, ptr %7, align 8
  %240 = add i64 24, %239
  %241 = add i64 %240, 1
  %242 = add i64 %241, 8
  %243 = sub i64 %242, 1
  %244 = and i64 %243, -8
  %245 = icmp ule i64 %244, 640
  br i1 %245, label %246, label %248

246:                                              ; preds = %238
  %247 = call noalias ptr @_emalloc_640() #8
  br label %382

248:                                              ; preds = %238
  %249 = load i64, ptr %7, align 8
  %250 = add i64 24, %249
  %251 = add i64 %250, 1
  %252 = add i64 %251, 8
  %253 = sub i64 %252, 1
  %254 = and i64 %253, -8
  %255 = icmp ule i64 %254, 768
  br i1 %255, label %256, label %258

256:                                              ; preds = %248
  %257 = call noalias ptr @_emalloc_768() #8
  br label %380

258:                                              ; preds = %248
  %259 = load i64, ptr %7, align 8
  %260 = add i64 24, %259
  %261 = add i64 %260, 1
  %262 = add i64 %261, 8
  %263 = sub i64 %262, 1
  %264 = and i64 %263, -8
  %265 = icmp ule i64 %264, 896
  br i1 %265, label %266, label %268

266:                                              ; preds = %258
  %267 = call noalias ptr @_emalloc_896() #8
  br label %378

268:                                              ; preds = %258
  %269 = load i64, ptr %7, align 8
  %270 = add i64 24, %269
  %271 = add i64 %270, 1
  %272 = add i64 %271, 8
  %273 = sub i64 %272, 1
  %274 = and i64 %273, -8
  %275 = icmp ule i64 %274, 1024
  br i1 %275, label %276, label %278

276:                                              ; preds = %268
  %277 = call noalias ptr @_emalloc_1024() #8
  br label %376

278:                                              ; preds = %268
  %279 = load i64, ptr %7, align 8
  %280 = add i64 24, %279
  %281 = add i64 %280, 1
  %282 = add i64 %281, 8
  %283 = sub i64 %282, 1
  %284 = and i64 %283, -8
  %285 = icmp ule i64 %284, 1280
  br i1 %285, label %286, label %288

286:                                              ; preds = %278
  %287 = call noalias ptr @_emalloc_1280() #8
  br label %374

288:                                              ; preds = %278
  %289 = load i64, ptr %7, align 8
  %290 = add i64 24, %289
  %291 = add i64 %290, 1
  %292 = add i64 %291, 8
  %293 = sub i64 %292, 1
  %294 = and i64 %293, -8
  %295 = icmp ule i64 %294, 1536
  br i1 %295, label %296, label %298

296:                                              ; preds = %288
  %297 = call noalias ptr @_emalloc_1536() #8
  br label %372

298:                                              ; preds = %288
  %299 = load i64, ptr %7, align 8
  %300 = add i64 24, %299
  %301 = add i64 %300, 1
  %302 = add i64 %301, 8
  %303 = sub i64 %302, 1
  %304 = and i64 %303, -8
  %305 = icmp ule i64 %304, 1792
  br i1 %305, label %306, label %308

306:                                              ; preds = %298
  %307 = call noalias ptr @_emalloc_1792() #8
  br label %370

308:                                              ; preds = %298
  %309 = load i64, ptr %7, align 8
  %310 = add i64 24, %309
  %311 = add i64 %310, 1
  %312 = add i64 %311, 8
  %313 = sub i64 %312, 1
  %314 = and i64 %313, -8
  %315 = icmp ule i64 %314, 2048
  br i1 %315, label %316, label %318

316:                                              ; preds = %308
  %317 = call noalias ptr @_emalloc_2048() #8
  br label %368

318:                                              ; preds = %308
  %319 = load i64, ptr %7, align 8
  %320 = add i64 24, %319
  %321 = add i64 %320, 1
  %322 = add i64 %321, 8
  %323 = sub i64 %322, 1
  %324 = and i64 %323, -8
  %325 = icmp ule i64 %324, 2560
  br i1 %325, label %326, label %328

326:                                              ; preds = %318
  %327 = call noalias ptr @_emalloc_2560() #8
  br label %366

328:                                              ; preds = %318
  %329 = load i64, ptr %7, align 8
  %330 = add i64 24, %329
  %331 = add i64 %330, 1
  %332 = add i64 %331, 8
  %333 = sub i64 %332, 1
  %334 = and i64 %333, -8
  %335 = icmp ule i64 %334, 3072
  br i1 %335, label %336, label %338

336:                                              ; preds = %328
  %337 = call noalias ptr @_emalloc_3072() #8
  br label %364

338:                                              ; preds = %328
  %339 = load i64, ptr %7, align 8
  %340 = add i64 24, %339
  %341 = add i64 %340, 1
  %342 = add i64 %341, 8
  %343 = sub i64 %342, 1
  %344 = and i64 %343, -8
  %345 = icmp ule i64 %344, 2093056
  br i1 %345, label %346, label %354

346:                                              ; preds = %338
  %347 = load i64, ptr %7, align 8
  %348 = add i64 24, %347
  %349 = add i64 %348, 1
  %350 = add i64 %349, 8
  %351 = sub i64 %350, 1
  %352 = and i64 %351, -8
  %353 = call noalias ptr @_emalloc_large(i64 noundef %352) #9
  br label %362

354:                                              ; preds = %338
  %355 = load i64, ptr %7, align 8
  %356 = add i64 24, %355
  %357 = add i64 %356, 1
  %358 = add i64 %357, 8
  %359 = sub i64 %358, 1
  %360 = and i64 %359, -8
  %361 = call noalias ptr @_emalloc_huge(i64 noundef %360) #9
  br label %362

362:                                              ; preds = %354, %346
  %363 = phi ptr [ %353, %346 ], [ %361, %354 ]
  br label %364

364:                                              ; preds = %362, %336
  %365 = phi ptr [ %337, %336 ], [ %363, %362 ]
  br label %366

366:                                              ; preds = %364, %326
  %367 = phi ptr [ %327, %326 ], [ %365, %364 ]
  br label %368

368:                                              ; preds = %366, %316
  %369 = phi ptr [ %317, %316 ], [ %367, %366 ]
  br label %370

370:                                              ; preds = %368, %306
  %371 = phi ptr [ %307, %306 ], [ %369, %368 ]
  br label %372

372:                                              ; preds = %370, %296
  %373 = phi ptr [ %297, %296 ], [ %371, %370 ]
  br label %374

374:                                              ; preds = %372, %286
  %375 = phi ptr [ %287, %286 ], [ %373, %372 ]
  br label %376

376:                                              ; preds = %374, %276
  %377 = phi ptr [ %277, %276 ], [ %375, %374 ]
  br label %378

378:                                              ; preds = %376, %266
  %379 = phi ptr [ %267, %266 ], [ %377, %376 ]
  br label %380

380:                                              ; preds = %378, %256
  %381 = phi ptr [ %257, %256 ], [ %379, %378 ]
  br label %382

382:                                              ; preds = %380, %246
  %383 = phi ptr [ %247, %246 ], [ %381, %380 ]
  br label %384

384:                                              ; preds = %382, %236
  %385 = phi ptr [ %237, %236 ], [ %383, %382 ]
  br label %386

386:                                              ; preds = %384, %226
  %387 = phi ptr [ %227, %226 ], [ %385, %384 ]
  br label %388

388:                                              ; preds = %386, %216
  %389 = phi ptr [ %217, %216 ], [ %387, %386 ]
  br label %390

390:                                              ; preds = %388, %206
  %391 = phi ptr [ %207, %206 ], [ %389, %388 ]
  br label %392

392:                                              ; preds = %390, %196
  %393 = phi ptr [ %197, %196 ], [ %391, %390 ]
  br label %394

394:                                              ; preds = %392, %186
  %395 = phi ptr [ %187, %186 ], [ %393, %392 ]
  br label %396

396:                                              ; preds = %394, %176
  %397 = phi ptr [ %177, %176 ], [ %395, %394 ]
  br label %398

398:                                              ; preds = %396, %166
  %399 = phi ptr [ %167, %166 ], [ %397, %396 ]
  br label %400

400:                                              ; preds = %398, %156
  %401 = phi ptr [ %157, %156 ], [ %399, %398 ]
  br label %402

402:                                              ; preds = %400, %146
  %403 = phi ptr [ %147, %146 ], [ %401, %400 ]
  br label %404

404:                                              ; preds = %402, %136
  %405 = phi ptr [ %137, %136 ], [ %403, %402 ]
  br label %406

406:                                              ; preds = %404, %126
  %407 = phi ptr [ %127, %126 ], [ %405, %404 ]
  br label %408

408:                                              ; preds = %406, %116
  %409 = phi ptr [ %117, %116 ], [ %407, %406 ]
  br label %410

410:                                              ; preds = %408, %106
  %411 = phi ptr [ %107, %106 ], [ %409, %408 ]
  br label %412

412:                                              ; preds = %410, %96
  %413 = phi ptr [ %97, %96 ], [ %411, %410 ]
  br label %414

414:                                              ; preds = %412, %86
  %415 = phi ptr [ %87, %86 ], [ %413, %412 ]
  br label %416

416:                                              ; preds = %414, %76
  %417 = phi ptr [ %77, %76 ], [ %415, %414 ]
  br label %418

418:                                              ; preds = %416, %66
  %419 = phi ptr [ %67, %66 ], [ %417, %416 ]
  br label %420

420:                                              ; preds = %418, %56
  %421 = phi ptr [ %57, %56 ], [ %419, %418 ]
  br label %422

422:                                              ; preds = %420, %46
  %423 = phi ptr [ %47, %46 ], [ %421, %420 ]
  br label %432

424:                                              ; preds = %30
  %425 = load i64, ptr %7, align 8
  %426 = add i64 24, %425
  %427 = add i64 %426, 1
  %428 = add i64 %427, 8
  %429 = sub i64 %428, 1
  %430 = and i64 %429, -8
  %431 = call noalias ptr @_emalloc(i64 noundef %430) #9
  br label %432

432:                                              ; preds = %424, %422
  %433 = phi ptr [ %423, %422 ], [ %431, %424 ]
  br label %434

434:                                              ; preds = %432, %22
  %435 = phi ptr [ %29, %22 ], [ %433, %432 ]
  store ptr %435, ptr %9, align 8
  %436 = load ptr, ptr %9, align 8
  store ptr %436, ptr %5, align 8
  store i32 1, ptr %6, align 4
  %437 = load i32, ptr %6, align 4
  %438 = load ptr, ptr %5, align 8
  store i32 %437, ptr %438, align 4
  %439 = load i8, ptr %8, align 1
  %440 = trunc i8 %439 to i1
  %441 = select i1 %440, i32 128, i32 0
  %442 = or i32 22, %441
  %443 = load ptr, ptr %9, align 8
  %444 = getelementptr inbounds %struct._zend_refcounted_h, ptr %443, i32 0, i32 1
  store i32 %442, ptr %444, align 4
  %445 = load ptr, ptr %9, align 8
  %446 = getelementptr inbounds %struct._zend_string, ptr %445, i32 0, i32 1
  store i64 0, ptr %446, align 8
  %447 = load i64, ptr %7, align 8
  %448 = load ptr, ptr %9, align 8
  %449 = getelementptr inbounds %struct._zend_string, ptr %448, i32 0, i32 2
  store i64 %447, ptr %449, align 8
  %450 = load ptr, ptr %9, align 8
  store ptr %450, ptr %15, align 8
  %451 = load ptr, ptr %15, align 8
  %452 = getelementptr inbounds %struct._zend_string, ptr %451, i32 0, i32 3
  %453 = getelementptr inbounds [1 x i8], ptr %452, i64 0, i64 0
  %454 = load ptr, ptr %10, align 8
  %455 = load i64, ptr %11, align 8
  call void @llvm.memcpy.p0.p0.i64(ptr align 8 %453, ptr align 1 %454, i64 %455, i1 false)
  %456 = load ptr, ptr %15, align 8
  %457 = getelementptr inbounds %struct._zend_string, ptr %456, i32 0, i32 3
  %458 = getelementptr inbounds [1 x i8], ptr %457, i64 0, i64 0
  %459 = load i64, ptr %11, align 8
  %460 = getelementptr inbounds i8, ptr %458, i64 %459
  %461 = load ptr, ptr %12, align 8
  %462 = load i64, ptr %13, align 8
  call void @llvm.memcpy.p0.p0.i64(ptr align 1 %460, ptr align 1 %461, i64 %462, i1 false)
  %463 = load ptr, ptr %15, align 8
  %464 = getelementptr inbounds %struct._zend_string, ptr %463, i32 0, i32 3
  %465 = load i64, ptr %14, align 8
  %466 = getelementptr inbounds [1 x i8], ptr %464, i64 0, i64 %465
  store i8 0, ptr %466, align 1
  %467 = load ptr, ptr %15, align 8
  ret ptr %467
}