; Function Attrs: nounwind uwtable
define noalias noundef ptr @zend_string_concat2(ptr nocapture noundef readonly %0, i64 noundef %1, ptr nocapture noundef readonly %2, i64 noundef %3) local_unnamed_addr #2 {
  %5 = add i64 %3, %1
  %6 = and i64 %5, -8
  %7 = add i64 %6, 32
  %8 = tail call noalias ptr @_emalloc(i64 noundef %7) #17
  store i32 1, ptr %8, align 4
  %9 = getelementptr inbounds i8, ptr %8, i64 4
  store i32 22, ptr %9, align 4
  %10 = getelementptr inbounds i8, ptr %8, i64 8
  store i64 0, ptr %10, align 8
  %11 = getelementptr inbounds i8, ptr %8, i64 16
  store i64 %5, ptr %11, align 8
  %12 = getelementptr inbounds i8, ptr %8, i64 24
  tail call void @llvm.memcpy.p0.p0.i64(ptr nonnull align 8 %12, ptr align 1 %0, i64 %1, i1 false)
  %13 = getelementptr inbounds i8, ptr %12, i64 %1
  tail call void @llvm.memcpy.p0.p0.i64(ptr nonnull align 1 %13, ptr align 1 %2, i64 %3, i1 false)
  %14 = getelementptr inbounds [1 x i8], ptr %12, i64 0, i64 %5
  store i8 0, ptr %14, align 1
  ret ptr %8
}